target datalayout = "e-m:e-p270:32:32-p271:32:32-p272:64:64-i64:64-i128:128-f80:128-n8:16:32:64-S128"
target triple = "x86_64-pc-linux-gnu"

%struct._value_string_ext = type { ptr, i32, i32, ptr, ptr }
%struct._packet_info = type { ptr, ptr, i32, i32, %struct.nstime_t, %struct.nstime_t, %struct.nstime_t, i8, ptr, ptr, ptr, ptr, %struct._address, %struct._address, %struct._address, %struct._address, %struct._address, %struct._address, i32, ptr, i8, [3 x i8], %struct.anon, i32, i32, i32, i32, ptr, i8, ptr, ptr, i16, i16, i32, i32, i16, i32, i32, ptr, ptr, ptr, i8, i8, i16, i16, i16, i32, i16, i16, ptr, ptr, ptr, ptr, ptr, i32, i32 }
%struct.nstime_t = type { i64, i32 }
%struct._address = type { i32, i32, ptr, ptr }
%struct.anon = type { i8, [3 x i8] }
%struct._proto_node = type { ptr, ptr, ptr, ptr, ptr, ptr, ptr }

@hf_nfs_atime = internal global i32 0, align 4
@hf_nfs_atime_sec = internal global i32 0, align 4
@hf_nfs_mtime = internal global i32 0, align 4
@hf_nfs_mtime_sec = internal global i32 0, align 4
@hf_nfs_ctime = internal global i32 0, align 4
@hf_nfs_ctime_sec = internal global i32 0, align 4
@names_nfs_ftype3_ext = internal global %struct._value_string_ext { ptr @_try_val_to_str_ext_init, i32 0, i32 7, ptr @names_nfs_ftype3, ptr @.str.1568 }, align 8
@.str.371 = private unnamed_addr constant [5 x i8] c"rdev\00", align 1
@hf_nfs3_fattr_type = internal global i32 0, align 4
@hf_nfs3_fattr_nlink = internal global i32 0, align 4
@hf_nfs3_fattr_uid = internal global i32 0, align 4
@hf_nfs3_fattr_gid = internal global i32 0, align 4
@hf_nfs3_fattr_size = internal global i32 0, align 4
@hf_nfs3_fattr_used = internal global i32 0, align 4
@hf_nfs3_fattr_fsid = internal global i32 0, align 4
@hf_nfs3_fattr_fileid = internal global i32 0, align 4
@hf_nfs_atime_nsec = internal global i32 0, align 4
@hf_nfs_mtime_nsec = internal global i32 0, align 4
@hf_nfs_ctime_nsec = internal global i32 0, align 4
@hf_nfs3_mode = internal global i32 0, align 4
@ett_nfs3_mode = internal global i32 0, align 4
@ett_nfs3_fattr = internal global i32 0, align 4
@.str.1410 = private unnamed_addr constant [32 x i8] c"  %s mode: %04o uid: %d gid: %d\00", align 1
@.str.1411 = private unnamed_addr constant [19 x i8] c"Unknown Type: 0x%x\00", align 1

; Function Attrs: null_pointer_is_valid sspstrong uwtable
define internal i32 @dissect_nfs3_mode(ptr noundef %0, i32 noundef %1, ptr noundef %2, ptr noundef %3) #0 {
  %5 = alloca ptr, align 8
  %6 = alloca i32, align 4
  %7 = alloca ptr, align 8
  %8 = alloca ptr, align 8
  store ptr %0, ptr %5, align 8
  store i32 %1, ptr %6, align 4
  store ptr %2, ptr %7, align 8
  store ptr %3, ptr %8, align 8
  %9 = load ptr, ptr %8, align 8
  %10 = icmp ne ptr %9, null
  br i1 %10, label %11, label %17

11:                                               ; preds = %4
  %12 = load ptr, ptr %5, align 8
  %13 = load i32, ptr %6, align 4
  %14 = add i32 %13, 0
  %15 = call i32 @tvb_get_ntohl(ptr noundef %12, i32 noundef %14)
  %16 = load ptr, ptr %8, align 8
  store i32 %15, ptr %16, align 4
  br label %17

17:                                               ; preds = %11, %4
  %18 = load ptr, ptr %7, align 8
  %19 = load ptr, ptr %5, align 8
  %20 = load i32, ptr %6, align 4
  %21 = load i32, ptr @hf_nfs3_mode, align 4
  %22 = load i32, ptr @ett_nfs3_mode, align 4
  %23 = call ptr @proto_tree_add_bitmask(ptr noundef %18, ptr noundef %19, i32 noundef %20, i32 noundef %21, i32 noundef %22, ptr noundef @dissect_nfs3_mode.mode_bits, i32 noundef 0)
  %24 = load i32, ptr %6, align 4
  %25 = add i32 %24, 4
  store i32 %25, ptr %6, align 4
  %26 = load i32, ptr %6, align 4
  ret i32 %26
}

; Function Attrs: null_pointer_is_valid sspstrong uwtable
define internal i32 @dissect_ftype3(ptr noundef %0, i32 noundef %1, ptr noundef %2, i32 noundef %3, ptr noundef %4) #0 {
  %6 = alloca ptr, align 8
  %7 = alloca i32, align 4
  %8 = alloca ptr, align 8
  %9 = alloca i32, align 4
  %10 = alloca ptr, align 8
  %11 = alloca i32, align 4
  store ptr %0, ptr %6, align 8
  store i32 %1, ptr %7, align 4
  store ptr %2, ptr %8, align 8
  store i32 %3, ptr %9, align 4
  store ptr %4, ptr %10, align 8
  call void @llvm.lifetime.start.p0(i64 4, ptr %11) #16
  %12 = load ptr, ptr %8, align 8
  %13 = load i32, ptr %9, align 4
  %14 = load ptr, ptr %6, align 8
  %15 = load i32, ptr %7, align 4
  %16 = call ptr @proto_tree_add_item_ret_uint(ptr noundef %12, i32 noundef %13, ptr noundef %14, i32 noundef %15, i32 noundef 4, i32 noundef 0, ptr noundef %11)
  %17 = load i32, ptr %7, align 4
  %18 = add i32 %17, 4
  store i32 %18, ptr %7, align 4
  %19 = load i32, ptr %11, align 4
  %20 = load ptr, ptr %10, align 8
  store i32 %19, ptr %20, align 4
  %21 = load i32, ptr %7, align 4
  call void @llvm.lifetime.end.p0(i64 4, ptr %11) #16
  ret i32 %21
}

; Function Attrs: null_pointer_is_valid sspstrong uwtable
define internal i32 @dissect_nfs_fattr3(ptr noundef %0, ptr noundef %1, i32 noundef %2, ptr noundef %3, ptr noundef %4, i32 noundef %5) #0 {
  %7 = alloca ptr, align 8
  %8 = alloca ptr, align 8
  %9 = alloca i32, align 4
  %10 = alloca ptr, align 8
  %11 = alloca ptr, align 8
  %12 = alloca i32, align 4
  %13 = alloca ptr, align 8
  %14 = alloca ptr, align 8
  %15 = alloca i32, align 4
  %16 = alloca i32, align 4
  %17 = alloca i32, align 4
  %18 = alloca i32, align 4
  %19 = alloca i32, align 4
  store ptr %0, ptr %7, align 8
  store ptr %1, ptr %8, align 8
  store i32 %2, ptr %9, align 4
  store ptr %3, ptr %10, align 8
  store ptr %4, ptr %11, align 8
  store i32 %5, ptr %12, align 4
  call void @llvm.lifetime.start.p0(i64 8, ptr %13) #16
  store ptr null, ptr %13, align 8
  call void @llvm.lifetime.start.p0(i64 8, ptr %14) #16
  store ptr null, ptr %14, align 8
  call void @llvm.lifetime.start.p0(i64 4, ptr %15) #16
  %20 = load i32, ptr %9, align 4
  store i32 %20, ptr %15, align 4
  call void @llvm.lifetime.start.p0(i64 4, ptr %16) #16
  call void @llvm.lifetime.start.p0(i64 4, ptr %17) #16
  call void @llvm.lifetime.start.p0(i64 4, ptr %18) #16
  call void @llvm.lifetime.start.p0(i64 4, ptr %19) #16
  %21 = load ptr, ptr %10, align 8
  %22 = load ptr, ptr %8, align 8
  %23 = load i32, ptr %9, align 4
  %24 = load i32, ptr @ett_nfs3_fattr, align 4
  %25 = load ptr, ptr %11, align 8
  %26 = call ptr @proto_tree_add_subtree(ptr noundef %21, ptr noundef %22, i32 noundef %23, i32 noundef -1, i32 noundef %24, ptr noundef %13, ptr noundef %25)
  store ptr %26, ptr %14, align 8
  %27 = load ptr, ptr %8, align 8
  %28 = load i32, ptr %9, align 4
  %29 = load ptr, ptr %14, align 8
  %30 = load i32, ptr @hf_nfs3_fattr_type, align 4
  %31 = call i32 @dissect_ftype3(ptr noundef %27, i32 noundef %28, ptr noundef %29, i32 noundef %30, ptr noundef %16)
  store i32 %31, ptr %9, align 4
  %32 = load ptr, ptr %8, align 8
  %33 = load i32, ptr %9, align 4
  %34 = load ptr, ptr %14, align 8
  %35 = call i32 @dissect_nfs3_mode(ptr noundef %32, i32 noundef %33, ptr noundef %34, ptr noundef %17)
  store i32 %35, ptr %9, align 4
  %36 = load ptr, ptr %8, align 8
  %37 = load ptr, ptr %14, align 8
  %38 = load i32, ptr @hf_nfs3_fattr_nlink, align 4
  %39 = load i32, ptr %9, align 4
  %40 = call i32 @dissect_rpc_uint32(ptr noundef %36, ptr noundef %37, i32 noundef %38, i32 noundef %39)
  store i32 %40, ptr %9, align 4
  %41 = load ptr, ptr %8, align 8
  %42 = load i32, ptr %9, align 4
  %43 = call i32 @tvb_get_ntohl(ptr noundef %41, i32 noundef %42)
  store i32 %43, ptr %18, align 4
  %44 = load ptr, ptr %8, align 8
  %45 = load ptr, ptr %14, align 8
  %46 = load i32, ptr @hf_nfs3_fattr_uid, align 4
  %47 = load i32, ptr %9, align 4
  %48 = call i32 @dissect_rpc_uint32(ptr noundef %44, ptr noundef %45, i32 noundef %46, i32 noundef %47)
  store i32 %48, ptr %9, align 4
  %49 = load ptr, ptr %8, align 8
  %50 = load i32, ptr %9, align 4
  %51 = call i32 @tvb_get_ntohl(ptr noundef %49, i32 noundef %50)
  store i32 %51, ptr %19, align 4
  %52 = load ptr, ptr %8, align 8
  %53 = load ptr, ptr %14, align 8
  %54 = load i32, ptr @hf_nfs3_fattr_gid, align 4
  %55 = load i32, ptr %9, align 4
  %56 = call i32 @dissect_rpc_uint32(ptr noundef %52, ptr noundef %53, i32 noundef %54, i32 noundef %55)
  store i32 %56, ptr %9, align 4
  %57 = load ptr, ptr %8, align 8
  %58 = load ptr, ptr %14, align 8
  %59 = load i32, ptr @hf_nfs3_fattr_size, align 4
  %60 = load i32, ptr %9, align 4
  %61 = call i32 @dissect_rpc_uint64(ptr noundef %57, ptr noundef %58, i32 noundef %59, i32 noundef %60)
  store i32 %61, ptr %9, align 4
  %62 = load ptr, ptr %8, align 8
  %63 = load ptr, ptr %14, align 8
  %64 = load i32, ptr @hf_nfs3_fattr_used, align 4
  %65 = load i32, ptr %9, align 4
  %66 = call i32 @dissect_rpc_uint64(ptr noundef %62, ptr noundef %63, i32 noundef %64, i32 noundef %65)
  store i32 %66, ptr %9, align 4
  %67 = load ptr, ptr %8, align 8
  %68 = load i32, ptr %9, align 4
  %69 = load ptr, ptr %14, align 8
  %70 = call i32 @dissect_nfs3_specdata(ptr noundef %67, i32 noundef %68, ptr noundef %69, ptr noundef @.str.371)
  store i32 %70, ptr %9, align 4
  %71 = load ptr, ptr %8, align 8
  %72 = load ptr, ptr %14, align 8
  %73 = load i32, ptr @hf_nfs3_fattr_fsid, align 4
  %74 = load i32, ptr %9, align 4
  %75 = call i32 @dissect_rpc_uint64(ptr noundef %71, ptr noundef %72, i32 noundef %73, i32 noundef %74)
  store i32 %75, ptr %9, align 4
  %76 = load ptr, ptr %8, align 8
  %77 = load ptr, ptr %14, align 8
  %78 = load i32, ptr @hf_nfs3_fattr_fileid, align 4
  %79 = load i32, ptr %9, align 4
  %80 = call i32 @dissect_rpc_uint64(ptr noundef %76, ptr noundef %77, i32 noundef %78, i32 noundef %79)
  store i32 %80, ptr %9, align 4
  %81 = load ptr, ptr %8, align 8
  %82 = load i32, ptr %9, align 4
  %83 = load ptr, ptr %14, align 8
  %84 = load i32, ptr @hf_nfs_atime, align 4
  %85 = load i32, ptr @hf_nfs_atime_sec, align 4
  %86 = load i32, ptr @hf_nfs_atime_nsec, align 4
  %87 = call i32 @dissect_nfstime3(ptr noundef %81, i32 noundef %82, ptr noundef %83, i32 noundef %84, i32 noundef %85, i32 noundef %86)
  store i32 %87, ptr %9, align 4
  %88 = load ptr, ptr %8, align 8
  %89 = load i32, ptr %9, align 4
  %90 = load ptr, ptr %14, align 8
  %91 = load i32, ptr @hf_nfs_mtime, align 4
  %92 = load i32, ptr @hf_nfs_mtime_sec, align 4
  %93 = load i32, ptr @hf_nfs_mtime_nsec, align 4
  %94 = call i32 @dissect_nfstime3(ptr noundef %88, i32 noundef %89, ptr noundef %90, i32 noundef %91, i32 noundef %92, i32 noundef %93)
  store i32 %94, ptr %9, align 4
  %95 = load ptr, ptr %8, align 8
  %96 = load i32, ptr %9, align 4
  %97 = load ptr, ptr %14, align 8
  %98 = load i32, ptr @hf_nfs_ctime, align 4
  %99 = load i32, ptr @hf_nfs_ctime_sec, align 4
  %100 = load i32, ptr @hf_nfs_ctime_nsec, align 4
  %101 = call i32 @dissect_nfstime3(ptr noundef %95, i32 noundef %96, ptr noundef %97, i32 noundef %98, i32 noundef %99, i32 noundef %100)
  store i32 %101, ptr %9, align 4
  %102 = load ptr, ptr %13, align 8
  %103 = load i32, ptr %9, align 4
  %104 = load i32, ptr %15, align 4
  %105 = sub i32 %103, %104
  call void @proto_item_set_len(ptr noundef %102, i32 noundef %105)
  %106 = load i32, ptr %12, align 4
  %107 = and i32 %106, -2147483648
  %108 = icmp ne i32 %107, 0
  br i1 %108, label %109, label %121

109:                                              ; preds = %6
  %110 = load i32, ptr %12, align 4
  %111 = and i32 %110, 2147483647
  store i32 %111, ptr %12, align 4
  %112 = load ptr, ptr %7, align 8
  %113 = getelementptr inbounds nuw %struct._packet_info, ptr %112, i32 0, i32 1
  %114 = load ptr, ptr %113, align 8
  %115 = load i32, ptr %16, align 4
  %116 = call ptr @val_to_str_ext(i32 noundef %115, ptr noundef @names_nfs_ftype3_ext, ptr noundef @.str.1411)
  %117 = load i32, ptr %17, align 4
  %118 = and i32 %117, 4095
  %119 = load i32, ptr %18, align 4
  %120 = load i32, ptr %19, align 4
  call void (ptr, i32, ptr, ...) @col_append_fstr(ptr noundef %114, i32 noundef 25, ptr noundef @.str.1410, ptr noundef %116, i32 noundef %118, i32 noundef %119, i32 noundef %120)
  br label %121

121:                                              ; preds = %109, %6
  br label %122

122:                                              ; preds = %131, %121
  %123 = load ptr, ptr %14, align 8
  %124 = icmp ne ptr %123, null
  br i1 %124, label %125, label %129

125:                                              ; preds = %122
  %126 = load i32, ptr %12, align 4
  %127 = add i32 %126, -1
  store i32 %127, ptr %12, align 4
  %128 = icmp ne i32 %126, 0
  br label %129

129:                                              ; preds = %125, %122
  %130 = phi i1 [ false, %122 ], [ %128, %125 ]
  br i1 %130, label %131, label %142

131:                                              ; preds = %129
  %132 = load ptr, ptr %14, align 8
  %133 = load i32, ptr %16, align 4
  %134 = call ptr @val_to_str_ext(i32 noundef %133, ptr noundef @names_nfs_ftype3_ext, ptr noundef @.str.1411)
  %135 = load i32, ptr %17, align 4
  %136 = and i32 %135, 4095
  %137 = load i32, ptr %18, align 4
  %138 = load i32, ptr %19, align 4
  call void (ptr, ptr, ...) @proto_item_append_text(ptr noundef %132, ptr noundef @.str.1410, ptr noundef %134, i32 noundef %136, i32 noundef %137, i32 noundef %138)
  %139 = load ptr, ptr %14, align 8
  %140 = getelementptr inbounds nuw %struct._proto_node, ptr %139, i32 0, i32 3
  %141 = load ptr, ptr %140, align 8
  store ptr %141, ptr %14, align 8
  br label %122, !llvm.loop !8

142:                                              ; preds = %129
  %143 = load i32, ptr %9, align 4
  call void @llvm.lifetime.end.p0(i64 4, ptr %19) #16
  call void @llvm.lifetime.end.p0(i64 4, ptr %18) #16
  call void @llvm.lifetime.end.p0(i64 4, ptr %17) #16
  call void @llvm.lifetime.end.p0(i64 4, ptr %16) #16
  call void @llvm.lifetime.end.p0(i64 4, ptr %15) #16
  call void @llvm.lifetime.end.p0(i64 8, ptr %14) #16
  call void @llvm.lifetime.end.p0(i64 8, ptr %13) #16
  ret i32 %143
}