; Function Attrs: null_pointer_is_valid sspstrong uwtable
define internal fastcc noundef i32 @dissect_nfs_fattr3(ptr noundef readonly captures(none) %0, ptr noundef %1, i32 noundef %2, ptr noundef %3, ptr noundef %4, i32 noundef range(i32 -2147483646, 3) %5) unnamed_addr #0 {
  %7 = alloca i32, align 4
  %8 = alloca ptr, align 8
  call void @llvm.lifetime.start.p0(i64 8, ptr nonnull %8) #22
  store ptr null, ptr %8, align 8
  %9 = load i32, ptr @ett_nfs3_fattr, align 4
  %10 = call ptr @proto_tree_add_subtree(ptr noundef %3, ptr noundef %1, i32 noundef %2, i32 noundef -1, i32 noundef %9, ptr noundef nonnull %8, ptr noundef %4)
  %11 = load i32, ptr @hf_nfs3_fattr_type, align 4
  call void @llvm.lifetime.start.p0(i64 4, ptr nonnull %7) #22
  %12 = call ptr @proto_tree_add_item_ret_uint(ptr noundef %10, i32 noundef %11, ptr noundef %1, i32 noundef %2, i32 noundef 4, i32 noundef 0, ptr noundef nonnull %7)
  %13 = add i32 %2, 4
  %14 = load i32, ptr %7, align 4
  call void @llvm.lifetime.end.p0(i64 4, ptr nonnull %7) #22
  %15 = call i32 @tvb_get_ntohl(ptr noundef %1, i32 noundef %13)
  %16 = load i32, ptr @hf_nfs3_mode, align 4
  %17 = load i32, ptr @ett_nfs3_mode, align 4
  %18 = call ptr @proto_tree_add_bitmask(ptr noundef %10, ptr noundef %1, i32 noundef %13, i32 noundef %16, i32 noundef %17, ptr noundef nonnull @dissect_nfs3_mode.mode_bits, i32 noundef 0)
  %19 = add i32 %2, 8
  %20 = load i32, ptr @hf_nfs3_fattr_nlink, align 4
  %21 = call i32 @dissect_rpc_uint32(ptr noundef %1, ptr noundef %10, i32 noundef %20, i32 noundef %19)
  %22 = call i32 @tvb_get_ntohl(ptr noundef %1, i32 noundef %21)
  %23 = load i32, ptr @hf_nfs3_fattr_uid, align 4
  %24 = call i32 @dissect_rpc_uint32(ptr noundef %1, ptr noundef %10, i32 noundef %23, i32 noundef %21)
  %25 = call i32 @tvb_get_ntohl(ptr noundef %1, i32 noundef %24)
  %26 = load i32, ptr @hf_nfs3_fattr_gid, align 4
  %27 = call i32 @dissect_rpc_uint32(ptr noundef %1, ptr noundef %10, i32 noundef %26, i32 noundef %24)
  %28 = load i32, ptr @hf_nfs3_fattr_size, align 4
  %29 = call i32 @dissect_rpc_uint64(ptr noundef %1, ptr noundef %10, i32 noundef %28, i32 noundef %27)
  %30 = load i32, ptr @hf_nfs3_fattr_used, align 4
  %31 = call i32 @dissect_rpc_uint64(ptr noundef %1, ptr noundef %10, i32 noundef %30, i32 noundef %29)
  %32 = call fastcc i32 @dissect_nfs3_specdata(ptr noundef %1, i32 noundef %31, ptr noundef %10, ptr noundef nonnull @.str.371)
  %33 = load i32, ptr @hf_nfs3_fattr_fsid, align 4
  %34 = call i32 @dissect_rpc_uint64(ptr noundef %1, ptr noundef %10, i32 noundef %33, i32 noundef %32)
  %35 = load i32, ptr @hf_nfs3_fattr_fileid, align 4
  %36 = call i32 @dissect_rpc_uint64(ptr noundef %1, ptr noundef %10, i32 noundef %35, i32 noundef %34)
  %37 = load i32, ptr @hf_nfs_atime, align 4
  %38 = load i32, ptr @hf_nfs_atime_sec, align 4
  %39 = load i32, ptr @hf_nfs_atime_nsec, align 4
  %40 = call fastcc i32 @dissect_nfstime3(ptr noundef %1, i32 noundef %36, ptr noundef %10, i32 noundef %37, i32 noundef %38, i32 noundef %39)
  %41 = load i32, ptr @hf_nfs_mtime, align 4
  %42 = load i32, ptr @hf_nfs_mtime_sec, align 4
  %43 = load i32, ptr @hf_nfs_mtime_nsec, align 4
  %44 = call fastcc i32 @dissect_nfstime3(ptr noundef %1, i32 noundef %40, ptr noundef %10, i32 noundef %41, i32 noundef %42, i32 noundef %43)
  %45 = load i32, ptr @hf_nfs_ctime, align 4
  %46 = load i32, ptr @hf_nfs_ctime_sec, align 4
  %47 = load i32, ptr @hf_nfs_ctime_nsec, align 4
  %48 = call fastcc i32 @dissect_nfstime3(ptr noundef %1, i32 noundef %44, ptr noundef %10, i32 noundef %45, i32 noundef %46, i32 noundef %47)
  %49 = load ptr, ptr %8, align 8
  %50 = sub i32 %48, %2
  call void @proto_item_set_len(ptr noundef %49, i32 noundef %50)
  %.not = icmp sgt i32 %5, -1
  br i1 %.not, label %57, label %51

51:                                               ; preds = %6
  %52 = and i32 %5, 2147483647
  %53 = getelementptr inbounds nuw i8, ptr %0, i64 8
  %54 = load ptr, ptr %53, align 8
  %55 = call ptr @val_to_str_ext(i32 noundef %14, ptr noundef nonnull @names_nfs_ftype3_ext, ptr noundef nonnull @.str.1411)
  %56 = and i32 %15, 4095
  call void (ptr, i32, ptr, ...) @col_append_fstr(ptr noundef %54, i32 noundef 25, ptr noundef nonnull @.str.1410, ptr noundef %55, i32 noundef %56, i32 noundef %22, i32 noundef %25)
  br label %57

57:                                               ; preds = %51, %6
  %.0 = phi i32 [ %52, %51 ], [ %5, %6 ]
  %.not6267 = icmp eq ptr %10, null
  %.not6368 = icmp eq i32 %.0, 0
  %or.cond69 = or i1 %.not6267, %.not6368
  br i1 %or.cond69, label %.critedge, label %.lr.ph

.lr.ph:                                           ; preds = %57
  %58 = and i32 %15, 4095
  br label %59

59:                                               ; preds = %.lr.ph, %59
  %.171 = phi i32 [ %.0, %.lr.ph ], [ %60, %59 ]
  %.06170 = phi ptr [ %10, %.lr.ph ], [ %63, %59 ]
  %60 = add nsw i32 %.171, -1
  %61 = call ptr @val_to_str_ext(i32 noundef %14, ptr noundef nonnull @names_nfs_ftype3_ext, ptr noundef nonnull @.str.1411)
  call void (ptr, ptr, ...) @proto_item_append_text(ptr noundef nonnull %.06170, ptr noundef nonnull @.str.1410, ptr noundef %61, i32 noundef %58, i32 noundef %22, i32 noundef %25)
  %62 = getelementptr inbounds nuw i8, ptr %.06170, i64 24
  %63 = load ptr, ptr %62, align 8
  %.not62 = icmp eq ptr %63, null
  %.not63 = icmp eq i32 %60, 0
  %or.cond = select i1 %.not62, i1 true, i1 %.not63
  br i1 %or.cond, label %.critedge, label %59, !llvm.loop !12

.critedge:                                        ; preds = %59, %57
  call void @llvm.lifetime.end.p0(i64 8, ptr nonnull %8) #22
  ret i32 %48
}